; Function Attrs: mustprogress nofree norecurse nosync nounwind willreturn memory(read, inaccessiblemem: none) uwtable
define hidden noundef zeroext i1 @_ZN3smt9theory_bv19include_func_interpEP9func_decl(ptr nocapture nonnull readnone align 8 %this, ptr nocapture noundef readonly %f) unnamed_addr #6 align 2 {
entry:
  %m_info.i = getelementptr inbounds i8, ptr %f, i64 24
  %0 = load ptr, ptr %m_info.i, align 8
  %cmp.i = icmp eq ptr %0, null
  br i1 %cmp.i, label %_ZNK4decl13get_decl_kindEv.exit, label %cond.false.i

cond.false.i:                                     ; preds = %entry
  %m_kind.i.i = getelementptr inbounds i8, ptr %0, i64 4
  %1 = load i32, ptr %m_kind.i.i, align 4
  %2 = add i32 %1, -12
  %3 = icmp ult i32 %2, 5
  br label %_ZNK4decl13get_decl_kindEv.exit

_ZNK4decl13get_decl_kindEv.exit:                  ; preds = %entry, %cond.false.i
  %cond.i = phi i1 [ %3, %cond.false.i ], [ false, %entry ]
  ret i1 %cond.i
}